target datalayout = "e-m:e-p270:32:32-p271:32:32-p272:64:64-i64:64-i128:128-f80:128-n8:16:32:64-S128"
target triple = "x86_64-unknown-linux-gnu"

%"class.icu_75::UnicodeSet" = type <{ %"class.icu_75::UnicodeFilter", ptr, i32, i32, i8, [7 x i8], ptr, ptr, i32, [4 x i8], ptr, i32, [4 x i8], ptr, ptr, [25 x i32], [4 x i8] }>
%"class.icu_75::UnicodeFilter" = type { %"class.icu_75::UnicodeFunctor", %"class.icu_75::UnicodeMatcher" }
%"class.icu_75::UnicodeFunctor" = type { %"class.icu_75::UObject" }
%"class.icu_75::UObject" = type { ptr }
%"class.icu_75::UnicodeMatcher" = type { ptr }

; Function Attrs: mustprogress uwtable
define void @_ZN6icu_7510UnicodeSet14releasePatternEv(ptr noundef nonnull align 8 dereferenceable(200) %this) #1 align 2 {
entry:
  %this.addr = alloca ptr, align 8
  store ptr %this, ptr %this.addr, align 8
  %this1 = load ptr, ptr %this.addr, align 8
  %pat = getelementptr inbounds %"class.icu_75::UnicodeSet", ptr %this1, i32 0, i32 10
  %0 = load ptr, ptr %pat, align 8
  %tobool = icmp ne ptr %0, null
  br i1 %tobool, label %if.then, label %if.end

if.then:                                          ; preds = %entry
  %pat2 = getelementptr inbounds %"class.icu_75::UnicodeSet", ptr %this1, i32 0, i32 10
  %1 = load ptr, ptr %pat2, align 8
  call void @uprv_free_75(ptr noundef %1)
  %pat3 = getelementptr inbounds %"class.icu_75::UnicodeSet", ptr %this1, i32 0, i32 10
  store ptr null, ptr %pat3, align 8
  %patLen = getelementptr inbounds %"class.icu_75::UnicodeSet", ptr %this1, i32 0, i32 11
  store i32 0, ptr %patLen, align 8
  br label %if.end

if.end:                                           ; preds = %if.then, %entry
  ret void
}

; Function Attrs: mustprogress nounwind uwtable
define void @_ZN6icu_7510UnicodeSet11swapBuffersEv(ptr noundef nonnull align 8 dereferenceable(200) %this) #0 align 2 {
entry:
  %this.addr = alloca ptr, align 8
  %temp = alloca ptr, align 8
  %c = alloca i32, align 4
  store ptr %this, ptr %this.addr, align 8
  %this1 = load ptr, ptr %this.addr, align 8
  %list = getelementptr inbounds %"class.icu_75::UnicodeSet", ptr %this1, i32 0, i32 1
  %0 = load ptr, ptr %list, align 8
  store ptr %0, ptr %temp, align 8
  %buffer = getelementptr inbounds %"class.icu_75::UnicodeSet", ptr %this1, i32 0, i32 7
  %1 = load ptr, ptr %buffer, align 8
  %list2 = getelementptr inbounds %"class.icu_75::UnicodeSet", ptr %this1, i32 0, i32 1
  store ptr %1, ptr %list2, align 8
  %2 = load ptr, ptr %temp, align 8
  %buffer3 = getelementptr inbounds %"class.icu_75::UnicodeSet", ptr %this1, i32 0, i32 7
  store ptr %2, ptr %buffer3, align 8
  %capacity = getelementptr inbounds %"class.icu_75::UnicodeSet", ptr %this1, i32 0, i32 2
  %3 = load i32, ptr %capacity, align 8
  store i32 %3, ptr %c, align 4
  %bufferCapacity = getelementptr inbounds %"class.icu_75::UnicodeSet", ptr %this1, i32 0, i32 8
  %4 = load i32, ptr %bufferCapacity, align 8
  %capacity4 = getelementptr inbounds %"class.icu_75::UnicodeSet", ptr %this1, i32 0, i32 2
  store i32 %4, ptr %capacity4, align 8
  %5 = load i32, ptr %c, align 4
  %bufferCapacity5 = getelementptr inbounds %"class.icu_75::UnicodeSet", ptr %this1, i32 0, i32 8
  store i32 %5, ptr %bufferCapacity5, align 8
  ret void
}

; Function Attrs: mustprogress nounwind uwtable
define linkonce_odr noundef signext i8 @_ZNK6icu_7510UnicodeSet7isBogusEv(ptr noundef nonnull align 8 dereferenceable(200) %this) #0 comdat align 2 {
entry:
  %this.addr = alloca ptr, align 8
  store ptr %this, ptr %this.addr, align 8
  %this1 = load ptr, ptr %this.addr, align 8
  %fFlags = getelementptr inbounds %"class.icu_75::UnicodeSet", ptr %this1, i32 0, i32 4
  %0 = load i8, ptr %fFlags, align 8
  %conv = zext i8 %0 to i32
  %and = and i32 %conv, 1
  %conv2 = trunc i32 %and to i8
  ret i8 %conv2
}

; Function Attrs: mustprogress nounwind uwtable
define linkonce_odr noundef signext i8 @_ZNK6icu_7510UnicodeSet8isFrozenEv(ptr noundef nonnull align 8 dereferenceable(200) %this) #0 comdat align 2 {
entry:
  %this.addr = alloca ptr, align 8
  store ptr %this, ptr %this.addr, align 8
  %this1 = load ptr, ptr %this.addr, align 8
  %bmpSet = getelementptr inbounds %"class.icu_75::UnicodeSet", ptr %this1, i32 0, i32 6
  %0 = load ptr, ptr %bmpSet, align 8
  %cmp = icmp ne ptr %0, null
  br i1 %cmp, label %lor.end, label %lor.rhs

lor.rhs:                                          ; preds = %entry
  %stringSpan = getelementptr inbounds %"class.icu_75::UnicodeSet", ptr %this1, i32 0, i32 14
  %1 = load ptr, ptr %stringSpan, align 8
  %cmp2 = icmp ne ptr %1, null
  br label %lor.end

lor.end:                                          ; preds = %lor.rhs, %entry
  %2 = phi i1 [ true, %entry ], [ %cmp2, %lor.rhs ]
  %conv = zext i1 %2 to i8
  ret i8 %conv
}

; Function Attrs: mustprogress uwtable
define void @_ZN6icu_7510UnicodeSet11exclusiveOrEPKiia(ptr noundef nonnull align 8 dereferenceable(200) %this, ptr noundef %other, i32 noundef %otherLen, i8 noundef signext %polarity) #1 align 2 {
entry:
  %this.addr = alloca ptr, align 8
  %other.addr = alloca ptr, align 8
  %otherLen.addr = alloca i32, align 4
  %polarity.addr = alloca i8, align 1
  %i = alloca i32, align 4
  %j = alloca i32, align 4
  %k = alloca i32, align 4
  %a = alloca i32, align 4
  %b = alloca i32, align 4
  store ptr %this, ptr %this.addr, align 8
  store ptr %other, ptr %other.addr, align 8
  store i32 %otherLen, ptr %otherLen.addr, align 4
  store i8 %polarity, ptr %polarity.addr, align 1
  %this1 = load ptr, ptr %this.addr, align 8
  %call = call noundef signext i8 @_ZNK6icu_7510UnicodeSet8isFrozenEv(ptr noundef nonnull align 8 dereferenceable(200) %this1)
  %tobool = icmp ne i8 %call, 0
  br i1 %tobool, label %if.then, label %lor.lhs.false

lor.lhs.false:                                    ; preds = %entry
  %call2 = call noundef signext i8 @_ZNK6icu_7510UnicodeSet7isBogusEv(ptr noundef nonnull align 8 dereferenceable(200) %this1)
  %tobool3 = icmp ne i8 %call2, 0
  br i1 %tobool3, label %if.then, label %if.end

if.then:                                          ; preds = %lor.lhs.false, %entry
  br label %return

if.end:                                           ; preds = %lor.lhs.false
  %len = getelementptr inbounds %"class.icu_75::UnicodeSet", ptr %this1, i32 0, i32 3
  %0 = load i32, ptr %len, align 4
  %1 = load i32, ptr %otherLen.addr, align 4
  %add = add nsw i32 %0, %1
  %call4 = call noundef zeroext i1 @_ZN6icu_7510UnicodeSet20ensureBufferCapacityEi(ptr noundef nonnull align 8 dereferenceable(200) %this1, i32 noundef %add)
  br i1 %call4, label %if.end6, label %if.then5

if.then5:                                         ; preds = %if.end
  br label %return

if.end6:                                          ; preds = %if.end
  store i32 0, ptr %i, align 4
  store i32 0, ptr %j, align 4
  store i32 0, ptr %k, align 4
  %list = getelementptr inbounds %"class.icu_75::UnicodeSet", ptr %this1, i32 0, i32 1
  %2 = load ptr, ptr %list, align 8
  %3 = load i32, ptr %i, align 4
  %inc = add nsw i32 %3, 1
  store i32 %inc, ptr %i, align 4
  %idxprom = sext i32 %3 to i64
  %arrayidx = getelementptr inbounds i32, ptr %2, i64 %idxprom
  %4 = load i32, ptr %arrayidx, align 4
  store i32 %4, ptr %a, align 4
  %5 = load i8, ptr %polarity.addr, align 1
  %conv = sext i8 %5 to i32
  %cmp = icmp eq i32 %conv, 1
  br i1 %cmp, label %if.then10, label %lor.lhs.false7

lor.lhs.false7:                                   ; preds = %if.end6
  %6 = load i8, ptr %polarity.addr, align 1
  %conv8 = sext i8 %6 to i32
  %cmp9 = icmp eq i32 %conv8, 2
  br i1 %cmp9, label %if.then10, label %if.else

if.then10:                                        ; preds = %lor.lhs.false7, %if.end6
  store i32 0, ptr %b, align 4
  %7 = load ptr, ptr %other.addr, align 8
  %8 = load i32, ptr %j, align 4
  %idxprom11 = sext i32 %8 to i64
  %arrayidx12 = getelementptr inbounds i32, ptr %7, i64 %idxprom11
  %9 = load i32, ptr %arrayidx12, align 4
  %cmp13 = icmp eq i32 %9, 0
  br i1 %cmp13, label %if.then14, label %if.end18

if.then14:                                        ; preds = %if.then10
  %10 = load i32, ptr %j, align 4
  %inc15 = add nsw i32 %10, 1
  store i32 %inc15, ptr %j, align 4
  %11 = load ptr, ptr %other.addr, align 8
  %12 = load i32, ptr %j, align 4
  %idxprom16 = sext i32 %12 to i64
  %arrayidx17 = getelementptr inbounds i32, ptr %11, i64 %idxprom16
  %13 = load i32, ptr %arrayidx17, align 4
  store i32 %13, ptr %b, align 4
  br label %if.end18

if.end18:                                         ; preds = %if.then14, %if.then10
  br label %if.end22

if.else:                                          ; preds = %lor.lhs.false7
  %14 = load ptr, ptr %other.addr, align 8
  %15 = load i32, ptr %j, align 4
  %inc19 = add nsw i32 %15, 1
  store i32 %inc19, ptr %j, align 4
  %idxprom20 = sext i32 %15 to i64
  %arrayidx21 = getelementptr inbounds i32, ptr %14, i64 %idxprom20
  %16 = load i32, ptr %arrayidx21, align 4
  store i32 %16, ptr %b, align 4
  br label %if.end22

if.end22:                                         ; preds = %if.else, %if.end18
  br label %for.cond

for.cond:                                         ; preds = %if.end60, %if.end22
  %17 = load i32, ptr %a, align 4
  %18 = load i32, ptr %b, align 4
  %cmp23 = icmp slt i32 %17, %18
  br i1 %cmp23, label %if.then24, label %if.else32

if.then24:                                        ; preds = %for.cond
  %19 = load i32, ptr %a, align 4
  %buffer = getelementptr inbounds %"class.icu_75::UnicodeSet", ptr %this1, i32 0, i32 7
  %20 = load ptr, ptr %buffer, align 8
  %21 = load i32, ptr %k, align 4
  %inc25 = add nsw i32 %21, 1
  store i32 %inc25, ptr %k, align 4
  %idxprom26 = sext i32 %21 to i64
  %arrayidx27 = getelementptr inbounds i32, ptr %20, i64 %idxprom26
  store i32 %19, ptr %arrayidx27, align 4
  %list28 = getelementptr inbounds %"class.icu_75::UnicodeSet", ptr %this1, i32 0, i32 1
  %22 = load ptr, ptr %list28, align 8
  %23 = load i32, ptr %i, align 4
  %inc29 = add nsw i32 %23, 1
  store i32 %inc29, ptr %i, align 4
  %idxprom30 = sext i32 %23 to i64
  %arrayidx31 = getelementptr inbounds i32, ptr %22, i64 %idxprom30
  %24 = load i32, ptr %arrayidx31, align 4
  store i32 %24, ptr %a, align 4
  br label %if.end60

if.else32:                                        ; preds = %for.cond
  %25 = load i32, ptr %b, align 4
  %26 = load i32, ptr %a, align 4
  %cmp33 = icmp slt i32 %25, %26
  br i1 %cmp33, label %if.then34, label %if.else42

if.then34:                                        ; preds = %if.else32
  %27 = load i32, ptr %b, align 4
  %buffer35 = getelementptr inbounds %"class.icu_75::UnicodeSet", ptr %this1, i32 0, i32 7
  %28 = load ptr, ptr %buffer35, align 8
  %29 = load i32, ptr %k, align 4
  %inc36 = add nsw i32 %29, 1
  store i32 %inc36, ptr %k, align 4
  %idxprom37 = sext i32 %29 to i64
  %arrayidx38 = getelementptr inbounds i32, ptr %28, i64 %idxprom37
  store i32 %27, ptr %arrayidx38, align 4
  %30 = load ptr, ptr %other.addr, align 8
  %31 = load i32, ptr %j, align 4
  %inc39 = add nsw i32 %31, 1
  store i32 %inc39, ptr %j, align 4
  %idxprom40 = sext i32 %31 to i64
  %arrayidx41 = getelementptr inbounds i32, ptr %30, i64 %idxprom40
  %32 = load i32, ptr %arrayidx41, align 4
  store i32 %32, ptr %b, align 4
  br label %if.end59

if.else42:                                        ; preds = %if.else32
  %33 = load i32, ptr %a, align 4
  %cmp43 = icmp ne i32 %33, 1114112
  br i1 %cmp43, label %if.then44, label %if.else52

if.then44:                                        ; preds = %if.else42
  %list45 = getelementptr inbounds %"class.icu_75::UnicodeSet", ptr %this1, i32 0, i32 1
  %34 = load ptr, ptr %list45, align 8
  %35 = load i32, ptr %i, align 4
  %inc46 = add nsw i32 %35, 1
  store i32 %inc46, ptr %i, align 4
  %idxprom47 = sext i32 %35 to i64
  %arrayidx48 = getelementptr inbounds i32, ptr %34, i64 %idxprom47
  %36 = load i32, ptr %arrayidx48, align 4
  store i32 %36, ptr %a, align 4
  %37 = load ptr, ptr %other.addr, align 8
  %38 = load i32, ptr %j, align 4
  %inc49 = add nsw i32 %38, 1
  store i32 %inc49, ptr %j, align 4
  %idxprom50 = sext i32 %38 to i64
  %arrayidx51 = getelementptr inbounds i32, ptr %37, i64 %idxprom50
  %39 = load i32, ptr %arrayidx51, align 4
  store i32 %39, ptr %b, align 4
  br label %if.end58

if.else52:                                        ; preds = %if.else42
  %buffer53 = getelementptr inbounds %"class.icu_75::UnicodeSet", ptr %this1, i32 0, i32 7
  %40 = load ptr, ptr %buffer53, align 8
  %41 = load i32, ptr %k, align 4
  %inc54 = add nsw i32 %41, 1
  store i32 %inc54, ptr %k, align 4
  %idxprom55 = sext i32 %41 to i64
  %arrayidx56 = getelementptr inbounds i32, ptr %40, i64 %idxprom55
  store i32 1114112, ptr %arrayidx56, align 4
  %42 = load i32, ptr %k, align 4
  %len57 = getelementptr inbounds %"class.icu_75::UnicodeSet", ptr %this1, i32 0, i32 3
  store i32 %42, ptr %len57, align 4
  br label %for.end

if.end58:                                         ; preds = %if.then44
  br label %if.end59

if.end59:                                         ; preds = %if.end58, %if.then34
  br label %if.end60

if.end60:                                         ; preds = %if.end59, %if.then24
  br label %for.cond, !llvm.loop !25

for.end:                                          ; preds = %if.else52
  call void @_ZN6icu_7510UnicodeSet11swapBuffersEv(ptr noundef nonnull align 8 dereferenceable(200) %this1)
  call void @_ZN6icu_7510UnicodeSet14releasePatternEv(ptr noundef nonnull align 8 dereferenceable(200) %this1)
  br label %return

return:                                           ; preds = %for.end, %if.then5, %if.then
  ret void
}