; Function Attrs: mustprogress uwtable
define void @_ZN6icu_7510UnicodeSet11exclusiveOrEPKiia(ptr noundef nonnull align 8 dereferenceable(200) %this, ptr nocapture noundef readonly %other, i32 noundef %otherLen, i8 noundef signext %polarity) local_unnamed_addr #1 align 2 {
entry:
  %bmpSet.i = getelementptr inbounds i8, ptr %this, i64 40
  %0 = load ptr, ptr %bmpSet.i, align 8
  %cmp.not.i = icmp eq ptr %0, null
  %stringSpan.i = getelementptr inbounds i8, ptr %this, i64 88
  %1 = load ptr, ptr %stringSpan.i, align 8
  %cmp2.i = icmp eq ptr %1, null
  %narrow.i.not = select i1 %cmp.not.i, i1 %cmp2.i, i1 false
  br i1 %narrow.i.not, label %lor.lhs.false, label %return

lor.lhs.false:                                    ; preds = %entry
  %fFlags.i = getelementptr inbounds i8, ptr %this, i64 32
  %2 = load i8, ptr %fFlags.i, align 8
  %3 = and i8 %2, 1
  %tobool3.not = icmp eq i8 %3, 0
  br i1 %tobool3.not, label %if.end, label %return

if.end:                                           ; preds = %lor.lhs.false
  %len = getelementptr inbounds i8, ptr %this, i64 28
  %4 = load i32, ptr %len, align 4
  %add = add nsw i32 %4, %otherLen
  %call4 = tail call noundef zeroext i1 @_ZN6icu_7510UnicodeSet20ensureBufferCapacityEi(ptr noundef nonnull align 8 dereferenceable(200) %this, i32 noundef %add)
  br i1 %call4, label %if.end6, label %return

if.end6:                                          ; preds = %if.end
  %list = getelementptr inbounds i8, ptr %this, i64 16
  %5 = load ptr, ptr %list, align 8
  %6 = load i32, ptr %5, align 4
  %7 = add i8 %polarity, -1
  %or.cond = icmp ult i8 %7, 2
  %8 = load i32, ptr %other, align 4
  br i1 %or.cond, label %if.then10, label %if.end22

if.then10:                                        ; preds = %if.end6
  %cmp13 = icmp eq i32 %8, 0
  br i1 %cmp13, label %if.then14, label %if.end22

if.then14:                                        ; preds = %if.then10
  %arrayidx17 = getelementptr inbounds i8, ptr %other, i64 4
  %9 = load i32, ptr %arrayidx17, align 4
  br label %if.end22

if.end22:                                         ; preds = %if.end6, %if.then10, %if.then14
  %j.0 = phi i32 [ 1, %if.then14 ], [ 0, %if.then10 ], [ 1, %if.end6 ]
  %b.0 = phi i32 [ %9, %if.then14 ], [ 0, %if.then10 ], [ %8, %if.end6 ]
  %buffer35 = getelementptr inbounds i8, ptr %this, i64 48
  br label %for.cond.outer

for.cond.outer:                                   ; preds = %for.cond.outer.backedge, %if.end22
  %i.0.ph = phi i32 [ 1, %if.end22 ], [ %i.0.ph.be, %for.cond.outer.backedge ]
  %j.1.ph = phi i32 [ %j.0, %if.end22 ], [ %j.1.ph.be, %for.cond.outer.backedge ]
  %k.0.ph = phi i32 [ 0, %if.end22 ], [ %k.0.ph.be, %for.cond.outer.backedge ]
  %a.0.ph = phi i32 [ %6, %if.end22 ], [ %a.0.ph.be, %for.cond.outer.backedge ]
  %b.1.ph = phi i32 [ %b.0, %if.end22 ], [ %b.1.ph.be, %for.cond.outer.backedge ]
  br label %for.cond

for.cond:                                         ; preds = %for.cond.outer, %if.then34
  %j.1 = phi i32 [ %inc39, %if.then34 ], [ %j.1.ph, %for.cond.outer ]
  %k.0 = phi i32 [ %inc36, %if.then34 ], [ %k.0.ph, %for.cond.outer ]
  %b.1 = phi i32 [ %13, %if.then34 ], [ %b.1.ph, %for.cond.outer ]
  %cmp23 = icmp slt i32 %a.0.ph, %b.1
  br i1 %cmp23, label %if.then24, label %if.else32

if.then24:                                        ; preds = %for.cond
  %10 = load ptr, ptr %buffer35, align 8
  %inc25 = add nsw i32 %k.0, 1
  %idxprom26 = sext i32 %k.0 to i64
  %arrayidx27 = getelementptr inbounds i32, ptr %10, i64 %idxprom26
  store i32 %a.0.ph, ptr %arrayidx27, align 4
  %11 = load ptr, ptr %list, align 8
  %idxprom30 = sext i32 %i.0.ph to i64
  %arrayidx31 = getelementptr inbounds i32, ptr %11, i64 %idxprom30
  br label %for.cond.outer.backedge

for.cond.outer.backedge:                          ; preds = %if.then24, %if.then44
  %j.1.ph.be = phi i32 [ %inc49, %if.then44 ], [ %j.1, %if.then24 ]
  %k.0.ph.be = phi i32 [ %k.0, %if.then44 ], [ %inc25, %if.then24 ]
  %a.0.ph.be.in = phi ptr [ %arrayidx48, %if.then44 ], [ %arrayidx31, %if.then24 ]
  %b.1.ph.be = phi i32 [ %15, %if.then44 ], [ %b.1, %if.then24 ]
  %a.0.ph.be = load i32, ptr %a.0.ph.be.in, align 4
  %i.0.ph.be = add nuw nsw i32 %i.0.ph, 1
  br label %for.cond.outer, !llvm.loop !25

if.else32:                                        ; preds = %for.cond
  %cmp33 = icmp slt i32 %b.1, %a.0.ph
  br i1 %cmp33, label %if.then34, label %if.else42

if.then34:                                        ; preds = %if.else32
  %12 = load ptr, ptr %buffer35, align 8
  %inc36 = add nsw i32 %k.0, 1
  %idxprom37 = sext i32 %k.0 to i64
  %arrayidx38 = getelementptr inbounds i32, ptr %12, i64 %idxprom37
  store i32 %b.1, ptr %arrayidx38, align 4
  %inc39 = add nsw i32 %j.1, 1
  %idxprom40 = sext i32 %j.1 to i64
  %arrayidx41 = getelementptr inbounds i32, ptr %other, i64 %idxprom40
  %13 = load i32, ptr %arrayidx41, align 4
  br label %for.cond, !llvm.loop !25

if.else42:                                        ; preds = %if.else32
  %cmp43.not = icmp eq i32 %a.0.ph, 1114112
  br i1 %cmp43.not, label %if.else52, label %if.then44

if.then44:                                        ; preds = %if.else42
  %14 = load ptr, ptr %list, align 8
  %idxprom47 = sext i32 %i.0.ph to i64
  %arrayidx48 = getelementptr inbounds i32, ptr %14, i64 %idxprom47
  %inc49 = add nsw i32 %j.1, 1
  %idxprom50 = sext i32 %j.1 to i64
  %arrayidx51 = getelementptr inbounds i32, ptr %other, i64 %idxprom50
  %15 = load i32, ptr %arrayidx51, align 4
  br label %for.cond.outer.backedge

if.else52:                                        ; preds = %if.else42
  %16 = load ptr, ptr %buffer35, align 8
  %inc54 = add nsw i32 %k.0, 1
  %idxprom55 = sext i32 %k.0 to i64
  %arrayidx56 = getelementptr inbounds i32, ptr %16, i64 %idxprom55
  store i32 1114112, ptr %arrayidx56, align 4
  store i32 %inc54, ptr %len, align 4
  %17 = load ptr, ptr %list, align 8
  %18 = load ptr, ptr %buffer35, align 8
  store ptr %18, ptr %list, align 8
  store ptr %17, ptr %buffer35, align 8
  %capacity.i = getelementptr inbounds i8, ptr %this, i64 24
  %19 = load i32, ptr %capacity.i, align 8
  %bufferCapacity.i = getelementptr inbounds i8, ptr %this, i64 56
  %20 = load i32, ptr %bufferCapacity.i, align 8
  store i32 %20, ptr %capacity.i, align 8
  store i32 %19, ptr %bufferCapacity.i, align 8
  %pat.i = getelementptr inbounds i8, ptr %this, i64 64
  %21 = load ptr, ptr %pat.i, align 8
  %tobool.not.i = icmp eq ptr %21, null
  br i1 %tobool.not.i, label %return, label %if.then.i

if.then.i:                                        ; preds = %if.else52
  tail call void @uprv_free_75(ptr noundef nonnull %21)
  store ptr null, ptr %pat.i, align 8
  %patLen.i = getelementptr inbounds i8, ptr %this, i64 72
  store i32 0, ptr %patLen.i, align 8
  br label %return

return:                                           ; preds = %if.then.i, %if.else52, %if.end, %entry, %lor.lhs.false
  ret void
}